; Function Attrs: mustprogress nofree norecurse nosync nounwind willreturn memory(readwrite, inaccessiblemem: none) uwtable
define hidden void @_ZN17duckdb_libpgquery20core_yy_flush_bufferEPNS_15yy_buffer_stateEPv(ptr noundef captures(address) %0, ptr noundef captures(none) %1) local_unnamed_addr #6 {
  %.not = icmp eq ptr %0, null
  br i1 %.not, label %.thread, label %3

3:                                                ; preds = %2
  %4 = getelementptr inbounds nuw i8, ptr %0, i64 32
  store i64 0, ptr %4, align 8, !tbaa !25
  %5 = getelementptr inbounds nuw i8, ptr %0, i64 8
  %6 = load ptr, ptr %5, align 8, !tbaa !71
  store i8 0, ptr %6, align 1, !tbaa !32
  %7 = load ptr, ptr %5, align 8, !tbaa !71
  %8 = getelementptr inbounds nuw i8, ptr %7, i64 1
  store i8 0, ptr %8, align 1, !tbaa !32
  %9 = load ptr, ptr %5, align 8, !tbaa !71
  %10 = getelementptr inbounds nuw i8, ptr %0, i64 16
  store ptr %9, ptr %10, align 8, !tbaa !28
  %11 = getelementptr inbounds nuw i8, ptr %0, i64 48
  store i32 1, ptr %11, align 8, !tbaa !84
  %12 = getelementptr inbounds nuw i8, ptr %0, i64 64
  store i32 0, ptr %12, align 8, !tbaa !70
  %13 = getelementptr inbounds nuw i8, ptr %1, i64 40
  %14 = load ptr, ptr %13, align 8, !tbaa !19
  %.not15 = icmp eq ptr %14, null
  br i1 %.not15, label %.thread, label %15

15:                                               ; preds = %3
  %16 = getelementptr inbounds nuw i8, ptr %1, i64 24
  %17 = load i64, ptr %16, align 8, !tbaa !20
  %18 = getelementptr inbounds nuw ptr, ptr %14, i64 %17
  %19 = load ptr, ptr %18, align 8, !tbaa !21
  %20 = icmp eq ptr %0, %19
  br i1 %20, label %21, label %.thread

21:                                               ; preds = %15
  %22 = getelementptr inbounds nuw i8, ptr %19, i64 32
  %23 = load i64, ptr %22, align 8, !tbaa !25
  %24 = getelementptr inbounds nuw i8, ptr %1, i64 56
  store i64 %23, ptr %24, align 8, !tbaa !27
  %25 = getelementptr inbounds nuw i8, ptr %19, i64 16
  %26 = load ptr, ptr %25, align 8, !tbaa !28
  %27 = getelementptr inbounds nuw i8, ptr %1, i64 72
  store ptr %26, ptr %27, align 8, !tbaa !29
  %28 = getelementptr inbounds nuw i8, ptr %1, i64 136
  store ptr %26, ptr %28, align 8, !tbaa !30
  %29 = load ptr, ptr %19, align 8, !tbaa !31
  %30 = getelementptr inbounds nuw i8, ptr %1, i64 8
  store ptr %29, ptr %30, align 8, !tbaa !24
  %31 = load i8, ptr %26, align 1, !tbaa !32
  %32 = getelementptr inbounds nuw i8, ptr %1, i64 48
  store i8 %31, ptr %32, align 8, !tbaa !33
  br label %.thread

.thread:                                          ; preds = %3, %15, %21, %2
  ret void
}